target datalayout = "e-m:e-p270:32:32-p271:32:32-p272:64:64-i64:64-i128:128-f80:128-n8:16:32:64-S128"
target triple = "x86_64-pc-linux-gnu"

%struct._packet_info = type { ptr, ptr, i32, i32, %struct.nstime_t, %struct.nstime_t, %struct.nstime_t, i8, ptr, ptr, ptr, ptr, %struct._address, %struct._address, %struct._address, %struct._address, %struct._address, %struct._address, i32, ptr, i8, [3 x i8], %struct.anon.1, i32, i32, i32, i32, ptr, i8, ptr, ptr, i16, i16, i32, i32, i16, i32, i32, ptr, ptr, ptr, i8, i8, i16, i16, i16, i32, i16, i16, ptr, ptr, ptr, ptr, ptr, i32, i32 }
%struct.nstime_t = type { i64, i32 }
%struct._address = type { i32, i32, ptr, ptr }
%struct.anon.1 = type { i8, [3 x i8] }
%struct._proto_node = type { ptr, ptr, ptr, ptr, ptr, ptr, ptr }
%struct.field_info = type { ptr, i32, i32, i32, i32, i32, i32, ptr, ptr, ptr, i32, i32 }

@hf_zb_direct_char_finding_binding = internal global i32 0, align 4
@hf_zb_direct_comm_fb_endpoint = internal global i32 0, align 4
@hf_zb_direct_comm_fb_initiator = internal global i32 0, align 4
@serv_comm_uuid = internal constant [16 x i8] c"\FB4\9B_\80\00\00\80\00\10\00\00\F7\FF\00\00", align 16
@.str.134 = private unnamed_addr constant [5 x i8] c"TRUE\00", align 1
@.str.135 = private unnamed_addr constant [6 x i8] c"FALSE\00", align 1
@char_finding_binding_uuid = internal constant [16 x i8] c"a:3'\1CIc\B1\1CB\08\00}7rp", align 16
@.str.141 = private unnamed_addr constant [26 x i8] c"FINDING & BINDING Request\00", align 1
@.str.142 = private unnamed_addr constant [31 x i8] c" (endpoint: %u, initiator: %s)\00", align 1

; Function Attrs: inlinehint nounwind null_pointer_is_valid sspstrong uwtable
define internal void @proto_item_set_generated(ptr noundef %0) #9 {
  %2 = alloca ptr, align 8
  store ptr %0, ptr %2, align 8
  %3 = load ptr, ptr %2, align 8
  %4 = icmp ne ptr %3, null
  br i1 %4, label %5, label %24

5:                                                ; preds = %1
  br label %6

6:                                                ; preds = %5
  %7 = load ptr, ptr %2, align 8
  %8 = getelementptr inbounds nuw %struct._proto_node, ptr %7, i32 0, i32 5
  %9 = load ptr, ptr %8, align 8
  %10 = icmp ne ptr %9, null
  br i1 %10, label %11, label %22

11:                                               ; preds = %6
  %12 = load ptr, ptr %2, align 8
  %13 = getelementptr inbounds nuw %struct._proto_node, ptr %12, i32 0, i32 5
  %14 = load ptr, ptr %13, align 8
  %15 = getelementptr inbounds nuw %struct.field_info, ptr %14, i32 0, i32 6
  %16 = load i32, ptr %15, align 4
  %17 = or i32 %16, 2
  %18 = load ptr, ptr %2, align 8
  %19 = getelementptr inbounds nuw %struct._proto_node, ptr %18, i32 0, i32 5
  %20 = load ptr, ptr %19, align 8
  %21 = getelementptr inbounds nuw %struct.field_info, ptr %20, i32 0, i32 6
  store i32 %17, ptr %21, align 4
  br label %22

22:                                               ; preds = %11, %6
  br label %23

23:                                               ; preds = %22
  br label %24

24:                                               ; preds = %23, %1
  ret void
}

; Function Attrs: null_pointer_is_valid sspstrong uwtable
define internal i32 @dissect_zb_direct_finding_binding(ptr noundef %0, ptr noundef %1, ptr noundef %2, ptr noundef %3) #0 {
  %5 = alloca ptr, align 8
  %6 = alloca ptr, align 8
  %7 = alloca ptr, align 8
  %8 = alloca ptr, align 8
  %9 = alloca ptr, align 8
  %10 = alloca i32, align 4
  %11 = alloca i32, align 4
  %12 = alloca i8, align 1
  store ptr %0, ptr %5, align 8
  store ptr %1, ptr %6, align 8
  store ptr %2, ptr %7, align 8
  store ptr %3, ptr %8, align 8
  call void @llvm.lifetime.start.p0(i64 8, ptr %9) #13
  call void @llvm.lifetime.start.p0(i64 4, ptr %10) #13
  store i32 0, ptr %10, align 4
  %13 = load ptr, ptr %6, align 8
  %14 = load ptr, ptr %8, align 8
  %15 = load i32, ptr %10, align 4
  %16 = call i32 @dissect_zb_direct_common(ptr noundef %5, ptr noundef %13, ptr noundef %7, ptr noundef %14, i32 noundef %15, ptr noundef @serv_comm_uuid, ptr noundef @char_finding_binding_uuid)
  store i32 %16, ptr %10, align 4
  %17 = load ptr, ptr %7, align 8
  %18 = load i32, ptr @hf_zb_direct_char_finding_binding, align 4
  %19 = load ptr, ptr %5, align 8
  %20 = load i32, ptr %10, align 4
  %21 = call ptr @proto_tree_add_item(ptr noundef %17, i32 noundef %18, ptr noundef %19, i32 noundef %20, i32 noundef 0, i32 noundef 0)
  store ptr %21, ptr %9, align 8
  %22 = load ptr, ptr %9, align 8
  call void @proto_item_set_generated(ptr noundef %22)
  %23 = load ptr, ptr %6, align 8
  %24 = getelementptr inbounds nuw %struct._packet_info, ptr %23, i32 0, i32 1
  %25 = load ptr, ptr %24, align 8
  call void @col_set_str(ptr noundef %25, i32 noundef 25, ptr noundef @.str.141)
  %26 = load i32, ptr %10, align 4
  %27 = load ptr, ptr %5, align 8
  %28 = call i32 @tvb_reported_length(ptr noundef %27)
  %29 = icmp ult i32 %26, %28
  br i1 %29, label %30, label %52

30:                                               ; preds = %4
  call void @llvm.lifetime.start.p0(i64 4, ptr %11) #13
  call void @llvm.lifetime.start.p0(i64 1, ptr %12) #13
  %31 = load ptr, ptr %7, align 8
  %32 = load i32, ptr @hf_zb_direct_comm_fb_endpoint, align 4
  %33 = load ptr, ptr %5, align 8
  %34 = load i32, ptr %10, align 4
  %35 = call ptr @proto_tree_add_item_ret_uint(ptr noundef %31, i32 noundef %32, ptr noundef %33, i32 noundef %34, i32 noundef 1, i32 noundef -2147483648, ptr noundef %11)
  %36 = load i32, ptr %10, align 4
  %37 = add i32 %36, 1
  store i32 %37, ptr %10, align 4
  %38 = load ptr, ptr %7, align 8
  %39 = load i32, ptr @hf_zb_direct_comm_fb_initiator, align 4
  %40 = load ptr, ptr %5, align 8
  %41 = load i32, ptr %10, align 4
  %42 = call ptr @proto_tree_add_item_ret_boolean(ptr noundef %38, i32 noundef %39, ptr noundef %40, i32 noundef %41, i32 noundef 1, i32 noundef -2147483648, ptr noundef %12)
  %43 = load i32, ptr %10, align 4
  %44 = add i32 %43, 1
  store i32 %44, ptr %10, align 4
  %45 = load ptr, ptr %6, align 8
  %46 = getelementptr inbounds nuw %struct._packet_info, ptr %45, i32 0, i32 1
  %47 = load ptr, ptr %46, align 8
  %48 = load i32, ptr %11, align 4
  %49 = load i8, ptr %12, align 1, !range !12, !noundef !13
  %50 = trunc i8 %49 to i1
  %51 = select i1 %50, ptr @.str.134, ptr @.str.135
  call void (ptr, i32, ptr, ...) @col_append_fstr(ptr noundef %47, i32 noundef 25, ptr noundef @.str.142, i32 noundef %48, ptr noundef %51)
  call void @llvm.lifetime.end.p0(i64 1, ptr %12) #13
  call void @llvm.lifetime.end.p0(i64 4, ptr %11) #13
  br label %52

52:                                               ; preds = %30, %4
  %53 = load i32, ptr %10, align 4
  call void @llvm.lifetime.end.p0(i64 4, ptr %10) #13
  call void @llvm.lifetime.end.p0(i64 8, ptr %9) #13
  ret i32 %53
}