; Function Attrs: null_pointer_is_valid sspstrong uwtable
define internal noundef i32 @dissect_zb_direct_finding_binding(ptr noundef %0, ptr noundef %1, ptr noundef %2, ptr readnone captures(none) %3) #0 {
  %5 = alloca ptr, align 8
  %6 = alloca ptr, align 8
  %7 = alloca i32, align 4
  %8 = alloca i8, align 1
  store ptr %0, ptr %5, align 8
  store ptr %2, ptr %6, align 8
  %9 = call fastcc i32 @dissect_zb_direct_common(ptr noundef nonnull %5, ptr noundef %1, ptr noundef nonnull %6, ptr noundef nonnull @serv_comm_uuid, ptr noundef nonnull @char_finding_binding_uuid)
  %10 = load ptr, ptr %6, align 8
  %11 = load i32, ptr @hf_zb_direct_char_finding_binding, align 4
  %12 = load ptr, ptr %5, align 8
  %13 = tail call ptr @proto_tree_add_item(ptr noundef %10, i32 noundef %11, ptr noundef %12, i32 noundef %9, i32 noundef 0, i32 noundef 0)
  %.not.i = icmp eq ptr %13, null
  br i1 %.not.i, label %proto_item_set_generated.exit, label %14

14:                                               ; preds = %4
  %15 = getelementptr inbounds nuw i8, ptr %13, i64 40
  %16 = load ptr, ptr %15, align 8
  %.not5.i = icmp eq ptr %16, null
  br i1 %.not5.i, label %proto_item_set_generated.exit, label %17

17:                                               ; preds = %14
  %18 = getelementptr inbounds nuw i8, ptr %16, i64 28
  %19 = load i32, ptr %18, align 4
  %20 = or i32 %19, 2
  store i32 %20, ptr %18, align 4
  br label %proto_item_set_generated.exit

proto_item_set_generated.exit:                    ; preds = %4, %14, %17
  %21 = getelementptr inbounds nuw i8, ptr %1, i64 8
  %22 = load ptr, ptr %21, align 8
  tail call void @col_set_str(ptr noundef %22, i32 noundef 25, ptr noundef nonnull @.str.141)
  %23 = tail call i32 @tvb_reported_length(ptr noundef %12)
  %24 = icmp ult i32 %9, %23
  br i1 %24, label %25, label %37

25:                                               ; preds = %proto_item_set_generated.exit
  call void @llvm.lifetime.start.p0(i64 4, ptr nonnull %7) #13
  call void @llvm.lifetime.start.p0(i64 1, ptr nonnull %8) #13
  %26 = load i32, ptr @hf_zb_direct_comm_fb_endpoint, align 4
  %27 = call ptr @proto_tree_add_item_ret_uint(ptr noundef %10, i32 noundef %26, ptr noundef %12, i32 noundef %9, i32 noundef 1, i32 noundef -2147483648, ptr noundef nonnull %7)
  %28 = add nuw i32 %9, 1
  %29 = load i32, ptr @hf_zb_direct_comm_fb_initiator, align 4
  %30 = call ptr @proto_tree_add_item_ret_boolean(ptr noundef %10, i32 noundef %29, ptr noundef %12, i32 noundef %28, i32 noundef 1, i32 noundef -2147483648, ptr noundef nonnull %8)
  %31 = add i32 %9, 2
  %32 = load ptr, ptr %21, align 8
  %33 = load i32, ptr %7, align 4
  %34 = load i8, ptr %8, align 1, !range !15, !noundef !16
  %35 = trunc nuw i8 %34 to i1
  %36 = select i1 %35, ptr @.str.134, ptr @.str.135
  call void (ptr, i32, ptr, ...) @col_append_fstr(ptr noundef %32, i32 noundef 25, ptr noundef nonnull @.str.142, i32 noundef %33, ptr noundef nonnull %36)
  call void @llvm.lifetime.end.p0(i64 1, ptr nonnull %8) #13
  call void @llvm.lifetime.end.p0(i64 4, ptr nonnull %7) #13
  br label %37

37:                                               ; preds = %25, %proto_item_set_generated.exit
  %.0 = phi i32 [ %31, %25 ], [ %9, %proto_item_set_generated.exit ]
  ret i32 %.0
}